target datalayout = "e-m:e-p270:32:32-p271:32:32-p272:64:64-i64:64-i128:128-f80:128-n8:16:32:64-S128"
target triple = "x86_64-pc-linux-gnu"

; Function Attrs: inlinehint nounwind uwtable
define internal i32 @norm__(i64 noundef %0, i32 noundef %1) #3 {
  %3 = alloca i32, align 4
  %4 = alloca i64, align 8
  %5 = alloca i32, align 4
  store i64 %0, ptr %4, align 8, !tbaa !32
  store i32 %1, ptr %5, align 4, !tbaa !34
  %6 = load i32, ptr %5, align 4, !tbaa !34
  %7 = icmp sgt i32 %6, 0
  br i1 %7, label %8, label %19

8:                                                ; preds = %2
  %9 = load i64, ptr %4, align 8, !tbaa !32
  %10 = load i32, ptr %5, align 4, !tbaa !34
  %11 = sub nsw i32 %10, 1
  %12 = zext i32 %11 to i64
  %13 = shl i64 1, %12
  %14 = add nsw i64 %9, %13
  %15 = load i32, ptr %5, align 4, !tbaa !34
  %16 = zext i32 %15 to i64
  %17 = ashr i64 %14, %16
  %18 = trunc i64 %17 to i32
  store i32 %18, ptr %3, align 4
  br label %22

19:                                               ; preds = %2
  %20 = load i64, ptr %4, align 8, !tbaa !32
  %21 = trunc i64 %20 to i32
  store i32 %21, ptr %3, align 4
  br label %22

22:                                               ; preds = %19, %8
  %23 = load i32, ptr %3, align 4
  ret i32 %23
}

; Function Attrs: inlinehint nounwind uwtable
define internal i32 @mul__(i32 noundef %0, i32 noundef %1, i32 noundef %2) #3 {
  %4 = alloca i32, align 4
  %5 = alloca i32, align 4
  %6 = alloca i32, align 4
  store i32 %0, ptr %4, align 4, !tbaa !34
  store i32 %1, ptr %5, align 4, !tbaa !34
  store i32 %2, ptr %6, align 4, !tbaa !34
  %7 = load i32, ptr %4, align 4, !tbaa !34
  %8 = sext i32 %7 to i64
  %9 = load i32, ptr %5, align 4, !tbaa !34
  %10 = sext i32 %9 to i64
  %11 = mul nsw i64 %8, %10
  %12 = load i32, ptr %6, align 4, !tbaa !34
  %13 = call i32 @norm__(i64 noundef %11, i32 noundef %12)
  ret i32 %13
}

; Function Attrs: inlinehint nounwind uwtable
define internal i32 @mul23(i32 noundef %0, i32 noundef %1) #3 {
  %3 = alloca i32, align 4
  %4 = alloca i32, align 4
  store i32 %0, ptr %3, align 4, !tbaa !34
  store i32 %1, ptr %4, align 4, !tbaa !34
  %5 = load i32, ptr %3, align 4, !tbaa !34
  %6 = load i32, ptr %4, align 4, !tbaa !34
  %7 = call i32 @mul__(i32 noundef %5, i32 noundef %6, i32 noundef 23)
  ret i32 %7
}

; Function Attrs: inlinehint nounwind uwtable
define internal i32 @mul22(i32 noundef %0, i32 noundef %1) #3 {
  %3 = alloca i32, align 4
  %4 = alloca i32, align 4
  store i32 %0, ptr %3, align 4, !tbaa !34
  store i32 %1, ptr %4, align 4, !tbaa !34
  %5 = load i32, ptr %3, align 4, !tbaa !34
  %6 = load i32, ptr %4, align 4, !tbaa !34
  %7 = call i32 @mul__(i32 noundef %5, i32 noundef %6, i32 noundef 22)
  ret i32 %7
}

; Function Attrs: nounwind uwtable
define internal void @filter1(ptr noundef %0, ptr noundef %1, i32 noundef %2, i64 noundef %3) #1 {
  %5 = alloca ptr, align 8
  %6 = alloca ptr, align 8
  %7 = alloca i32, align 4
  %8 = alloca i64, align 8
  %9 = alloca i32, align 4
  store ptr %0, ptr %5, align 8, !tbaa !28
  store ptr %1, ptr %6, align 8, !tbaa !28
  store i32 %2, ptr %7, align 4, !tbaa !34
  store i64 %3, ptr %8, align 8, !tbaa !32
  call void @llvm.lifetime.start.p0(i64 4, ptr %9) #7
  store i32 0, ptr %9, align 4, !tbaa !34
  br label %10

10:                                               ; preds = %29, %4
  %11 = load i32, ptr %9, align 4, !tbaa !34
  %12 = sext i32 %11 to i64
  %13 = load i64, ptr %8, align 8, !tbaa !32
  %14 = icmp slt i64 %12, %13
  br i1 %14, label %15, label %32

15:                                               ; preds = %10
  %16 = load ptr, ptr %6, align 8, !tbaa !28
  %17 = load i32, ptr %9, align 4, !tbaa !34
  %18 = sext i32 %17 to i64
  %19 = getelementptr inbounds i32, ptr %16, i64 %18
  %20 = load i32, ptr %19, align 4, !tbaa !34
  %21 = load i32, ptr %7, align 4, !tbaa !34
  %22 = call i32 @mul23(i32 noundef %20, i32 noundef %21)
  %23 = load ptr, ptr %5, align 8, !tbaa !28
  %24 = load i32, ptr %9, align 4, !tbaa !34
  %25 = sext i32 %24 to i64
  %26 = getelementptr inbounds i32, ptr %23, i64 %25
  %27 = load i32, ptr %26, align 4, !tbaa !34
  %28 = sub i32 %27, %22
  store i32 %28, ptr %26, align 4, !tbaa !34
  br label %29

29:                                               ; preds = %15
  %30 = load i32, ptr %9, align 4, !tbaa !34
  %31 = add nsw i32 %30, 1
  store i32 %31, ptr %9, align 4, !tbaa !34
  br label %10, !llvm.loop !93

32:                                               ; preds = %10
  call void @llvm.lifetime.end.p0(i64 4, ptr %9) #7
  ret void
}

; Function Attrs: nounwind uwtable
define internal void @filter0(ptr noundef %0, ptr noundef %1, i32 noundef %2, i64 noundef %3) #1 {
  %5 = alloca ptr, align 8
  %6 = alloca ptr, align 8
  %7 = alloca i32, align 4
  %8 = alloca i64, align 8
  %9 = alloca i32, align 4
  store ptr %0, ptr %5, align 8, !tbaa !28
  store ptr %1, ptr %6, align 8, !tbaa !28
  store i32 %2, ptr %7, align 4, !tbaa !34
  store i64 %3, ptr %8, align 8, !tbaa !32
  call void @llvm.lifetime.start.p0(i64 4, ptr %9) #7
  store i32 0, ptr %9, align 4, !tbaa !34
  br label %10

10:                                               ; preds = %29, %4
  %11 = load i32, ptr %9, align 4, !tbaa !34
  %12 = sext i32 %11 to i64
  %13 = load i64, ptr %8, align 8, !tbaa !32
  %14 = icmp slt i64 %12, %13
  br i1 %14, label %15, label %32

15:                                               ; preds = %10
  %16 = load ptr, ptr %6, align 8, !tbaa !28
  %17 = load i32, ptr %9, align 4, !tbaa !34
  %18 = sext i32 %17 to i64
  %19 = getelementptr inbounds i32, ptr %16, i64 %18
  %20 = load i32, ptr %19, align 4, !tbaa !34
  %21 = load i32, ptr %7, align 4, !tbaa !34
  %22 = call i32 @mul22(i32 noundef %20, i32 noundef %21)
  %23 = load ptr, ptr %5, align 8, !tbaa !28
  %24 = load i32, ptr %9, align 4, !tbaa !34
  %25 = sext i32 %24 to i64
  %26 = getelementptr inbounds i32, ptr %23, i64 %25
  %27 = load i32, ptr %26, align 4, !tbaa !34
  %28 = sub i32 %27, %22
  store i32 %28, ptr %26, align 4, !tbaa !34
  br label %29

29:                                               ; preds = %15
  %30 = load i32, ptr %9, align 4, !tbaa !34
  %31 = add nsw i32 %30, 1
  store i32 %31, ptr %9, align 4, !tbaa !34
  br label %10, !llvm.loop !92

32:                                               ; preds = %10
  call void @llvm.lifetime.end.p0(i64 4, ptr %9) #7
  ret void
}

; Function Attrs: nounwind uwtable
define internal void @assemble_freq_bands_c(ptr noundef %0, ptr noundef %1, ptr noundef %2, ptr noundef %3, i64 noundef %4) #1 {
  %6 = alloca ptr, align 8
  %7 = alloca ptr, align 8
  %8 = alloca ptr, align 8
  %9 = alloca ptr, align 8
  %10 = alloca i64, align 8
  %11 = alloca i32, align 4
  store ptr %0, ptr %6, align 8, !tbaa !28
  store ptr %1, ptr %7, align 8, !tbaa !28
  store ptr %2, ptr %8, align 8, !tbaa !28
  store ptr %3, ptr %9, align 8, !tbaa !28
  store i64 %4, ptr %10, align 8, !tbaa !32
  call void @llvm.lifetime.start.p0(i64 4, ptr %11) #7
  %12 = load ptr, ptr %7, align 8, !tbaa !28
  %13 = load ptr, ptr %8, align 8, !tbaa !28
  %14 = load ptr, ptr %9, align 8, !tbaa !28
  %15 = getelementptr inbounds i32, ptr %14, i64 0
  %16 = load i32, ptr %15, align 4, !tbaa !34
  %17 = load i64, ptr %10, align 8, !tbaa !32
  call void @filter0(ptr noundef %12, ptr noundef %13, i32 noundef %16, i64 noundef %17)
  %18 = load ptr, ptr %8, align 8, !tbaa !28
  %19 = load ptr, ptr %7, align 8, !tbaa !28
  %20 = load ptr, ptr %9, align 8, !tbaa !28
  %21 = getelementptr inbounds i32, ptr %20, i64 1
  %22 = load i32, ptr %21, align 4, !tbaa !34
  %23 = load i64, ptr %10, align 8, !tbaa !32
  call void @filter0(ptr noundef %18, ptr noundef %19, i32 noundef %22, i64 noundef %23)
  %24 = load ptr, ptr %7, align 8, !tbaa !28
  %25 = load ptr, ptr %8, align 8, !tbaa !28
  %26 = load ptr, ptr %9, align 8, !tbaa !28
  %27 = getelementptr inbounds i32, ptr %26, i64 2
  %28 = load i32, ptr %27, align 4, !tbaa !34
  %29 = load i64, ptr %10, align 8, !tbaa !32
  call void @filter0(ptr noundef %24, ptr noundef %25, i32 noundef %28, i64 noundef %29)
  %30 = load ptr, ptr %8, align 8, !tbaa !28
  %31 = load ptr, ptr %7, align 8, !tbaa !28
  %32 = load ptr, ptr %9, align 8, !tbaa !28
  %33 = getelementptr inbounds i32, ptr %32, i64 3
  %34 = load i32, ptr %33, align 4, !tbaa !34
  %35 = load i64, ptr %10, align 8, !tbaa !32
  call void @filter0(ptr noundef %30, ptr noundef %31, i32 noundef %34, i64 noundef %35)
  store i32 0, ptr %11, align 4, !tbaa !34
  br label %36

36:                                               ; preds = %67, %5
  %37 = load i32, ptr %11, align 4, !tbaa !34
  %38 = icmp slt i32 %37, 8
  br i1 %38, label %39, label %72

39:                                               ; preds = %36
  %40 = load ptr, ptr %7, align 8, !tbaa !28
  %41 = load ptr, ptr %8, align 8, !tbaa !28
  %42 = load ptr, ptr %9, align 8, !tbaa !28
  %43 = load i32, ptr %11, align 4, !tbaa !34
  %44 = add nsw i32 %43, 4
  %45 = sext i32 %44 to i64
  %46 = getelementptr inbounds i32, ptr %42, i64 %45
  %47 = load i32, ptr %46, align 4, !tbaa !34
  %48 = load i64, ptr %10, align 8, !tbaa !32
  call void @filter1(ptr noundef %40, ptr noundef %41, i32 noundef %47, i64 noundef %48)
  %49 = load ptr, ptr %8, align 8, !tbaa !28
  %50 = load ptr, ptr %7, align 8, !tbaa !28
  %51 = load ptr, ptr %9, align 8, !tbaa !28
  %52 = load i32, ptr %11, align 4, !tbaa !34
  %53 = add nsw i32 %52, 12
  %54 = sext i32 %53 to i64
  %55 = getelementptr inbounds i32, ptr %51, i64 %54
  %56 = load i32, ptr %55, align 4, !tbaa !34
  %57 = load i64, ptr %10, align 8, !tbaa !32
  call void @filter1(ptr noundef %49, ptr noundef %50, i32 noundef %56, i64 noundef %57)
  %58 = load ptr, ptr %7, align 8, !tbaa !28
  %59 = load ptr, ptr %8, align 8, !tbaa !28
  %60 = load ptr, ptr %9, align 8, !tbaa !28
  %61 = load i32, ptr %11, align 4, !tbaa !34
  %62 = add nsw i32 %61, 4
  %63 = sext i32 %62 to i64
  %64 = getelementptr inbounds i32, ptr %60, i64 %63
  %65 = load i32, ptr %64, align 4, !tbaa !34
  %66 = load i64, ptr %10, align 8, !tbaa !32
  call void @filter1(ptr noundef %58, ptr noundef %59, i32 noundef %65, i64 noundef %66)
  br label %67

67:                                               ; preds = %39
  %68 = load i32, ptr %11, align 4, !tbaa !34
  %69 = add nsw i32 %68, 1
  store i32 %69, ptr %11, align 4, !tbaa !34
  %70 = load ptr, ptr %7, align 8, !tbaa !28
  %71 = getelementptr inbounds i32, ptr %70, i32 -1
  store ptr %71, ptr %7, align 8, !tbaa !28
  br label %36, !llvm.loop !80

72:                                               ; preds = %36
  store i32 0, ptr %11, align 4, !tbaa !34
  br label %73

73:                                               ; preds = %89, %72
  %74 = load i32, ptr %11, align 4, !tbaa !34
  %75 = sext i32 %74 to i64
  %76 = load i64, ptr %10, align 8, !tbaa !32
  %77 = icmp slt i64 %75, %76
  br i1 %77, label %78, label %92

78:                                               ; preds = %73
  %79 = load ptr, ptr %8, align 8, !tbaa !28
  %80 = getelementptr inbounds nuw i32, ptr %79, i32 1
  store ptr %80, ptr %8, align 8, !tbaa !28
  %81 = load i32, ptr %79, align 4, !tbaa !34
  %82 = load ptr, ptr %6, align 8, !tbaa !28
  %83 = getelementptr inbounds nuw i32, ptr %82, i32 1
  store ptr %83, ptr %6, align 8, !tbaa !28
  store i32 %81, ptr %82, align 4, !tbaa !34
  %84 = load ptr, ptr %7, align 8, !tbaa !28
  %85 = getelementptr inbounds nuw i32, ptr %84, i32 1
  store ptr %85, ptr %7, align 8, !tbaa !28
  %86 = load i32, ptr %85, align 4, !tbaa !34
  %87 = load ptr, ptr %6, align 8, !tbaa !28
  %88 = getelementptr inbounds nuw i32, ptr %87, i32 1
  store ptr %88, ptr %6, align 8, !tbaa !28
  store i32 %86, ptr %87, align 4, !tbaa !34
  br label %89

89:                                               ; preds = %78
  %90 = load i32, ptr %11, align 4, !tbaa !34
  %91 = add nsw i32 %90, 1
  store i32 %91, ptr %11, align 4, !tbaa !34
  br label %73, !llvm.loop !81

92:                                               ; preds = %73
  call void @llvm.lifetime.end.p0(i64 4, ptr %11) #7
  ret void
}