; Function Attrs: nofree norecurse nosync nounwind memory(argmem: readwrite) uwtable
define internal void @assemble_freq_bands_c(ptr noundef writeonly captures(none) %0, ptr noundef captures(none) %1, ptr noundef captures(none) %2, ptr noundef readonly captures(none) %3, i64 noundef %4) #3 {
  %6 = icmp sgt i64 %4, 0
  br i1 %6, label %.lr.ph.i, label %._crit_edge

.lr.ph.i:                                         ; preds = %5
  %7 = load i32, ptr %3, align 4, !tbaa !23
  %8 = sext i32 %7 to i64
  br label %9

9:                                                ; preds = %9, %.lr.ph.i
  %indvars.iv.i = phi i64 [ 0, %.lr.ph.i ], [ %indvars.iv.next.i, %9 ]
  %10 = getelementptr inbounds nuw i32, ptr %2, i64 %indvars.iv.i
  %11 = load i32, ptr %10, align 4, !tbaa !23
  %12 = sext i32 %11 to i64
  %13 = mul nsw i64 %12, %8
  %14 = add nsw i64 %13, 2097152
  %15 = lshr i64 %14, 22
  %16 = trunc i64 %15 to i32
  %17 = getelementptr inbounds nuw i32, ptr %1, i64 %indvars.iv.i
  %18 = load i32, ptr %17, align 4, !tbaa !23
  %19 = sub i32 %18, %16
  store i32 %19, ptr %17, align 4, !tbaa !23
  %indvars.iv.next.i = add nuw nsw i64 %indvars.iv.i, 1
  %exitcond.not.i = icmp eq i64 %indvars.iv.next.i, %4
  br i1 %exitcond.not.i, label %.lr.ph.i44, label %9, !llvm.loop !66

.lr.ph.i44:                                       ; preds = %9
  %20 = getelementptr inbounds nuw i8, ptr %3, i64 4
  %21 = load i32, ptr %20, align 4, !tbaa !23
  %22 = sext i32 %21 to i64
  br label %23

23:                                               ; preds = %23, %.lr.ph.i44
  %indvars.iv.i45 = phi i64 [ 0, %.lr.ph.i44 ], [ %indvars.iv.next.i46, %23 ]
  %24 = getelementptr inbounds nuw i32, ptr %1, i64 %indvars.iv.i45
  %25 = load i32, ptr %24, align 4, !tbaa !23
  %26 = sext i32 %25 to i64
  %27 = mul nsw i64 %26, %22
  %28 = add nsw i64 %27, 2097152
  %29 = lshr i64 %28, 22
  %30 = trunc i64 %29 to i32
  %31 = getelementptr inbounds nuw i32, ptr %2, i64 %indvars.iv.i45
  %32 = load i32, ptr %31, align 4, !tbaa !23
  %33 = sub i32 %32, %30
  store i32 %33, ptr %31, align 4, !tbaa !23
  %indvars.iv.next.i46 = add nuw nsw i64 %indvars.iv.i45, 1
  %exitcond.not.i47 = icmp eq i64 %indvars.iv.next.i46, %4
  br i1 %exitcond.not.i47, label %.lr.ph.i49, label %23, !llvm.loop !66

.lr.ph.i49:                                       ; preds = %23
  %34 = getelementptr inbounds nuw i8, ptr %3, i64 8
  %35 = load i32, ptr %34, align 4, !tbaa !23
  %36 = sext i32 %35 to i64
  br label %37

37:                                               ; preds = %37, %.lr.ph.i49
  %indvars.iv.i50 = phi i64 [ 0, %.lr.ph.i49 ], [ %indvars.iv.next.i51, %37 ]
  %38 = getelementptr inbounds nuw i32, ptr %2, i64 %indvars.iv.i50
  %39 = load i32, ptr %38, align 4, !tbaa !23
  %40 = sext i32 %39 to i64
  %41 = mul nsw i64 %40, %36
  %42 = add nsw i64 %41, 2097152
  %43 = lshr i64 %42, 22
  %44 = trunc i64 %43 to i32
  %45 = getelementptr inbounds nuw i32, ptr %1, i64 %indvars.iv.i50
  %46 = load i32, ptr %45, align 4, !tbaa !23
  %47 = sub i32 %46, %44
  store i32 %47, ptr %45, align 4, !tbaa !23
  %indvars.iv.next.i51 = add nuw nsw i64 %indvars.iv.i50, 1
  %exitcond.not.i52 = icmp eq i64 %indvars.iv.next.i51, %4
  br i1 %exitcond.not.i52, label %.lr.ph.i54, label %37, !llvm.loop !66

.lr.ph.i54:                                       ; preds = %37
  %48 = getelementptr inbounds nuw i8, ptr %3, i64 12
  %49 = load i32, ptr %48, align 4, !tbaa !23
  %50 = sext i32 %49 to i64
  br label %51

51:                                               ; preds = %51, %.lr.ph.i54
  %indvars.iv.i55 = phi i64 [ 0, %.lr.ph.i54 ], [ %indvars.iv.next.i56, %51 ]
  %52 = getelementptr inbounds nuw i32, ptr %1, i64 %indvars.iv.i55
  %53 = load i32, ptr %52, align 4, !tbaa !23
  %54 = sext i32 %53 to i64
  %55 = mul nsw i64 %54, %50
  %56 = add nsw i64 %55, 2097152
  %57 = lshr i64 %56, 22
  %58 = trunc i64 %57 to i32
  %59 = getelementptr inbounds nuw i32, ptr %2, i64 %indvars.iv.i55
  %60 = load i32, ptr %59, align 4, !tbaa !23
  %61 = sub i32 %60, %58
  store i32 %61, ptr %59, align 4, !tbaa !23
  %indvars.iv.next.i56 = add nuw nsw i64 %indvars.iv.i55, 1
  %exitcond.not.i57 = icmp eq i64 %indvars.iv.next.i56, %4
  br i1 %exitcond.not.i57, label %.lr.ph.i59.us, label %51, !llvm.loop !66

.lr.ph.i59.us:                                    ; preds = %51, %filter1.exit72.loopexit.us
  %indvars.iv = phi i64 [ %indvars.iv.next, %filter1.exit72.loopexit.us ], [ 0, %51 ]
  %.04173.us = phi ptr [ %104, %filter1.exit72.loopexit.us ], [ %1, %51 ]
  %62 = getelementptr inbounds nuw i32, ptr %3, i64 %indvars.iv
  %63 = getelementptr inbounds nuw i8, ptr %62, i64 16
  %64 = load i32, ptr %63, align 4, !tbaa !23
  %65 = sext i32 %64 to i64
  br label %66

66:                                               ; preds = %66, %.lr.ph.i59.us
  %indvars.iv.i60.us = phi i64 [ 0, %.lr.ph.i59.us ], [ %indvars.iv.next.i61.us, %66 ]
  %67 = getelementptr inbounds nuw i32, ptr %2, i64 %indvars.iv.i60.us
  %68 = load i32, ptr %67, align 4, !tbaa !23
  %69 = sext i32 %68 to i64
  %70 = mul nsw i64 %69, %65
  %71 = add nsw i64 %70, 4194304
  %72 = lshr i64 %71, 23
  %73 = trunc i64 %72 to i32
  %74 = getelementptr inbounds nuw i32, ptr %.04173.us, i64 %indvars.iv.i60.us
  %75 = load i32, ptr %74, align 4, !tbaa !23
  %76 = sub i32 %75, %73
  store i32 %76, ptr %74, align 4, !tbaa !23
  %indvars.iv.next.i61.us = add nuw nsw i64 %indvars.iv.i60.us, 1
  %exitcond.not.i62.us = icmp eq i64 %indvars.iv.next.i61.us, %4
  br i1 %exitcond.not.i62.us, label %.lr.ph.i63.us, label %66, !llvm.loop !67

.lr.ph.i63.us:                                    ; preds = %66
  %77 = getelementptr inbounds nuw i8, ptr %62, i64 48
  %78 = load i32, ptr %77, align 4, !tbaa !23
  %79 = sext i32 %78 to i64
  br label %80

80:                                               ; preds = %80, %.lr.ph.i63.us
  %indvars.iv.i64.us = phi i64 [ 0, %.lr.ph.i63.us ], [ %indvars.iv.next.i65.us, %80 ]
  %81 = getelementptr inbounds nuw i32, ptr %.04173.us, i64 %indvars.iv.i64.us
  %82 = load i32, ptr %81, align 4, !tbaa !23
  %83 = sext i32 %82 to i64
  %84 = mul nsw i64 %83, %79
  %85 = add nsw i64 %84, 4194304
  %86 = lshr i64 %85, 23
  %87 = trunc i64 %86 to i32
  %88 = getelementptr inbounds nuw i32, ptr %2, i64 %indvars.iv.i64.us
  %89 = load i32, ptr %88, align 4, !tbaa !23
  %90 = sub i32 %89, %87
  store i32 %90, ptr %88, align 4, !tbaa !23
  %indvars.iv.next.i65.us = add nuw nsw i64 %indvars.iv.i64.us, 1
  %exitcond.not.i66.us = icmp eq i64 %indvars.iv.next.i65.us, %4
  br i1 %exitcond.not.i66.us, label %.lr.ph.i68.us, label %80, !llvm.loop !67

.lr.ph.i68.us:                                    ; preds = %80
  %91 = load i32, ptr %63, align 4, !tbaa !23
  %92 = sext i32 %91 to i64
  br label %93

93:                                               ; preds = %93, %.lr.ph.i68.us
  %indvars.iv.i69.us = phi i64 [ 0, %.lr.ph.i68.us ], [ %indvars.iv.next.i70.us, %93 ]
  %94 = getelementptr inbounds nuw i32, ptr %2, i64 %indvars.iv.i69.us
  %95 = load i32, ptr %94, align 4, !tbaa !23
  %96 = sext i32 %95 to i64
  %97 = mul nsw i64 %96, %92
  %98 = add nsw i64 %97, 4194304
  %99 = lshr i64 %98, 23
  %100 = trunc i64 %99 to i32
  %101 = getelementptr inbounds nuw i32, ptr %.04173.us, i64 %indvars.iv.i69.us
  %102 = load i32, ptr %101, align 4, !tbaa !23
  %103 = sub i32 %102, %100
  store i32 %103, ptr %101, align 4, !tbaa !23
  %indvars.iv.next.i70.us = add nuw nsw i64 %indvars.iv.i69.us, 1
  %exitcond.not.i71.us = icmp eq i64 %indvars.iv.next.i70.us, %4
  br i1 %exitcond.not.i71.us, label %filter1.exit72.loopexit.us, label %93, !llvm.loop !67

filter1.exit72.loopexit.us:                       ; preds = %93
  %indvars.iv.next = add nuw nsw i64 %indvars.iv, 1
  %104 = getelementptr inbounds i8, ptr %.04173.us, i64 -4
  %exitcond.not = icmp eq i64 %indvars.iv.next, 8
  br i1 %exitcond.not, label %.lr.ph, label %.lr.ph.i59.us, !llvm.loop !68

.lr.ph:                                           ; preds = %filter1.exit72.loopexit.us, %.lr.ph
  %indvars.iv82 = phi i64 [ %indvars.iv.next83, %.lr.ph ], [ 0, %filter1.exit72.loopexit.us ]
  %.04077 = phi ptr [ %110, %.lr.ph ], [ %0, %filter1.exit72.loopexit.us ]
  %.14276 = phi ptr [ %108, %.lr.ph ], [ %104, %filter1.exit72.loopexit.us ]
  %.04375 = phi ptr [ %105, %.lr.ph ], [ %2, %filter1.exit72.loopexit.us ]
  %105 = getelementptr inbounds nuw i8, ptr %.04375, i64 4
  %106 = load i32, ptr %.04375, align 4, !tbaa !23
  %107 = getelementptr inbounds nuw i8, ptr %.04077, i64 4
  store i32 %106, ptr %.04077, align 4, !tbaa !23
  %108 = getelementptr inbounds nuw i8, ptr %.14276, i64 4
  %109 = load i32, ptr %108, align 4, !tbaa !23
  %110 = getelementptr inbounds nuw i8, ptr %.04077, i64 8
  store i32 %109, ptr %107, align 4, !tbaa !23
  %indvars.iv.next83 = add nuw nsw i64 %indvars.iv82, 1
  %exitcond85.not = icmp eq i64 %indvars.iv.next83, %4
  br i1 %exitcond85.not, label %._crit_edge, label %.lr.ph, !llvm.loop !69

._crit_edge:                                      ; preds = %.lr.ph, %5
  ret void
}